target datalayout = "e-m:e-p270:32:32-p271:32:32-p272:64:64-i64:64-i128:128-f80:128-n8:16:32:64-S128"
target triple = "x86_64-pc-linux-gnu"

%struct.ev_token_bucket = type { i64, i64, i32 }
%struct.ev_token_bucket_cfg = type { i64, i64, i64, i64, %struct.timeval, i32 }
%struct.timeval = type { i64, i64 }

; Function Attrs: nounwind uwtable
define hidden i32 @ev_token_bucket_update_(ptr noundef %0, ptr noundef %1, i32 noundef %2) #0 {
  %4 = alloca i32, align 4
  %5 = alloca ptr, align 8
  %6 = alloca ptr, align 8
  %7 = alloca i32, align 4
  %8 = alloca i32, align 4
  %9 = alloca i32, align 4
  store ptr %0, ptr %5, align 8
  store ptr %1, ptr %6, align 8
  store i32 %2, ptr %7, align 4
  call void @llvm.lifetime.start.p0(i64 4, ptr %8) #5
  %10 = load i32, ptr %7, align 4
  %11 = load ptr, ptr %5, align 8
  %12 = getelementptr inbounds nuw %struct.ev_token_bucket, ptr %11, i32 0, i32 2
  %13 = load i32, ptr %12, align 8
  %14 = sub i32 %10, %13
  store i32 %14, ptr %8, align 4
  %15 = load i32, ptr %8, align 4
  %16 = icmp eq i32 %15, 0
  br i1 %16, label %20, label %17

17:                                               ; preds = %3
  %18 = load i32, ptr %8, align 4
  %19 = icmp ugt i32 %18, 2147483647
  br i1 %19, label %20, label %21

20:                                               ; preds = %17, %3
  store i32 0, ptr %4, align 4
  store i32 1, ptr %9, align 4
  br label %89

21:                                               ; preds = %17
  %22 = load ptr, ptr %6, align 8
  %23 = getelementptr inbounds nuw %struct.ev_token_bucket_cfg, ptr %22, i32 0, i32 1
  %24 = load i64, ptr %23, align 8
  %25 = load ptr, ptr %5, align 8
  %26 = getelementptr inbounds nuw %struct.ev_token_bucket, ptr %25, i32 0, i32 0
  %27 = load i64, ptr %26, align 8
  %28 = sub i64 %24, %27
  %29 = load i32, ptr %8, align 4
  %30 = zext i32 %29 to i64
  %31 = udiv i64 %28, %30
  %32 = load ptr, ptr %6, align 8
  %33 = getelementptr inbounds nuw %struct.ev_token_bucket_cfg, ptr %32, i32 0, i32 0
  %34 = load i64, ptr %33, align 8
  %35 = icmp ult i64 %31, %34
  br i1 %35, label %36, label %42

36:                                               ; preds = %21
  %37 = load ptr, ptr %6, align 8
  %38 = getelementptr inbounds nuw %struct.ev_token_bucket_cfg, ptr %37, i32 0, i32 1
  %39 = load i64, ptr %38, align 8
  %40 = load ptr, ptr %5, align 8
  %41 = getelementptr inbounds nuw %struct.ev_token_bucket, ptr %40, i32 0, i32 0
  store i64 %39, ptr %41, align 8
  br label %53

42:                                               ; preds = %21
  %43 = load i32, ptr %8, align 4
  %44 = zext i32 %43 to i64
  %45 = load ptr, ptr %6, align 8
  %46 = getelementptr inbounds nuw %struct.ev_token_bucket_cfg, ptr %45, i32 0, i32 0
  %47 = load i64, ptr %46, align 8
  %48 = mul i64 %44, %47
  %49 = load ptr, ptr %5, align 8
  %50 = getelementptr inbounds nuw %struct.ev_token_bucket, ptr %49, i32 0, i32 0
  %51 = load i64, ptr %50, align 8
  %52 = add i64 %51, %48
  store i64 %52, ptr %50, align 8
  br label %53

53:                                               ; preds = %42, %36
  %54 = load ptr, ptr %6, align 8
  %55 = getelementptr inbounds nuw %struct.ev_token_bucket_cfg, ptr %54, i32 0, i32 3
  %56 = load i64, ptr %55, align 8
  %57 = load ptr, ptr %5, align 8
  %58 = getelementptr inbounds nuw %struct.ev_token_bucket, ptr %57, i32 0, i32 1
  %59 = load i64, ptr %58, align 8
  %60 = sub i64 %56, %59
  %61 = load i32, ptr %8, align 4
  %62 = zext i32 %61 to i64
  %63 = udiv i64 %60, %62
  %64 = load ptr, ptr %6, align 8
  %65 = getelementptr inbounds nuw %struct.ev_token_bucket_cfg, ptr %64, i32 0, i32 2
  %66 = load i64, ptr %65, align 8
  %67 = icmp ult i64 %63, %66
  br i1 %67, label %68, label %74

68:                                               ; preds = %53
  %69 = load ptr, ptr %6, align 8
  %70 = getelementptr inbounds nuw %struct.ev_token_bucket_cfg, ptr %69, i32 0, i32 3
  %71 = load i64, ptr %70, align 8
  %72 = load ptr, ptr %5, align 8
  %73 = getelementptr inbounds nuw %struct.ev_token_bucket, ptr %72, i32 0, i32 1
  store i64 %71, ptr %73, align 8
  br label %85

74:                                               ; preds = %53
  %75 = load i32, ptr %8, align 4
  %76 = zext i32 %75 to i64
  %77 = load ptr, ptr %6, align 8
  %78 = getelementptr inbounds nuw %struct.ev_token_bucket_cfg, ptr %77, i32 0, i32 2
  %79 = load i64, ptr %78, align 8
  %80 = mul i64 %76, %79
  %81 = load ptr, ptr %5, align 8
  %82 = getelementptr inbounds nuw %struct.ev_token_bucket, ptr %81, i32 0, i32 1
  %83 = load i64, ptr %82, align 8
  %84 = add i64 %83, %80
  store i64 %84, ptr %82, align 8
  br label %85

85:                                               ; preds = %74, %68
  %86 = load i32, ptr %7, align 4
  %87 = load ptr, ptr %5, align 8
  %88 = getelementptr inbounds nuw %struct.ev_token_bucket, ptr %87, i32 0, i32 2
  store i32 %86, ptr %88, align 8
  store i32 1, ptr %4, align 4
  store i32 1, ptr %9, align 4
  br label %89

89:                                               ; preds = %85, %20
  call void @llvm.lifetime.end.p0(i64 4, ptr %8) #5
  %90 = load i32, ptr %4, align 4
  ret i32 %90
}