; Function Attrs: mustprogress nofree norecurse nosync nounwind willreturn memory(argmem: readwrite) uwtable
define hidden range(i32 0, 2) i32 @ev_token_bucket_update_(ptr noundef captures(none) %0, ptr noundef readonly captures(none) %1, i32 noundef %2) local_unnamed_addr #0 {
  %4 = getelementptr inbounds nuw i8, ptr %0, i64 16
  %5 = load i32, ptr %4, align 8
  %6 = sub i32 %2, %5
  %7 = icmp eq i32 %2, %5
  %8 = icmp slt i32 %6, 0
  %or.cond = or i1 %7, %8
  br i1 %or.cond, label %31, label %9

9:                                                ; preds = %3
  %10 = getelementptr inbounds nuw i8, ptr %1, i64 8
  %11 = load i64, ptr %10, align 8
  %12 = load i64, ptr %0, align 8
  %13 = sub i64 %11, %12
  %14 = zext nneg i32 %6 to i64
  %15 = udiv i64 %13, %14
  %16 = load i64, ptr %1, align 8
  %17 = icmp ult i64 %15, %16
  %18 = mul i64 %16, %14
  %19 = add i64 %18, %12
  %storemerge = select i1 %17, i64 %11, i64 %19
  store i64 %storemerge, ptr %0, align 8
  %20 = getelementptr inbounds nuw i8, ptr %1, i64 24
  %21 = load i64, ptr %20, align 8
  %22 = getelementptr inbounds nuw i8, ptr %0, i64 8
  %23 = load i64, ptr %22, align 8
  %24 = sub i64 %21, %23
  %25 = udiv i64 %24, %14
  %26 = getelementptr inbounds nuw i8, ptr %1, i64 16
  %27 = load i64, ptr %26, align 8
  %28 = icmp ult i64 %25, %27
  %29 = mul i64 %27, %14
  %30 = add i64 %29, %23
  %storemerge28 = select i1 %28, i64 %21, i64 %30
  store i64 %storemerge28, ptr %22, align 8
  store i32 %2, ptr %4, align 8
  br label %31

31:                                               ; preds = %3, %9
  %.0 = phi i32 [ 1, %9 ], [ 0, %3 ]
  ret i32 %.0
}